; Function Attrs: mustprogress uwtable
define dso_local void @_ZN4Json12StyledWriter11writeIndentEv(ptr noundef nonnull align 8 dereferenceable(105) %0) local_unnamed_addr #2 align 2 {
  %2 = getelementptr inbounds i8, ptr %0, i64 32
  %3 = tail call noundef zeroext i1 @_ZNKSt7__cxx1112basic_stringIcSt11char_traitsIcESaIcEE5emptyEv(ptr noundef nonnull align 8 dereferenceable(32) %2) #39
  br i1 %3, label %11, label %4

4:                                                ; preds = %1
  %5 = tail call noundef i64 @_ZNKSt7__cxx1112basic_stringIcSt11char_traitsIcESaIcEE6lengthEv(ptr noundef nonnull align 8 dereferenceable(32) %2) #39
  %6 = add i64 %5, -1
  %7 = tail call noundef nonnull align 1 dereferenceable(1) ptr @_ZNSt7__cxx1112basic_stringIcSt11char_traitsIcESaIcEEixEm(ptr noundef nonnull align 8 dereferenceable(32) %2, i64 noundef %6)
  %8 = load i8, ptr %7, align 1
  switch i8 %8, label %9 [
    i8 32, label %14
    i8 10, label %11
  ]

9:                                                ; preds = %4
  %10 = tail call noundef nonnull align 8 dereferenceable(32) ptr @_ZNSt7__cxx1112basic_stringIcSt11char_traitsIcESaIcEEpLEc(ptr noundef nonnull align 8 dereferenceable(32) %2, i8 noundef signext 10)
  br label %11

11:                                               ; preds = %4, %9, %1
  %12 = getelementptr inbounds i8, ptr %0, i64 64
  %13 = tail call noundef nonnull align 8 dereferenceable(32) ptr @_ZNSt7__cxx1112basic_stringIcSt11char_traitsIcESaIcEEpLERKS4_(ptr noundef nonnull align 8 dereferenceable(32) %2, ptr noundef nonnull align 8 dereferenceable(32) %12)
  br label %14

14:                                               ; preds = %4, %11
  ret void
}